; Function Attrs: mustprogress uwtable
define hidden void @_ZN4cvc58internal6theory5arith2nl17TangentPlaneCheckC2ERNS0_3EnvEPNS3_8ExtStateE(ptr noundef nonnull align 8 dereferenceable(216) %this, ptr noundef nonnull align 8 dereferenceable(576) %env, ptr noundef %data) unnamed_addr #3 align 2 personality ptr @__gxx_personality_v0 {
entry:
  tail call void @_ZN4cvc58internal6EnvObjC2ERNS0_3EnvE(ptr noundef nonnull align 8 dereferenceable(16) %this, ptr noundef nonnull align 8 dereferenceable(576) %env)
  store ptr getelementptr inbounds ({ [4 x ptr] }, ptr @_ZTVN4cvc58internal6theory5arith2nl17TangentPlaneCheckE, i64 0, i32 0, i64 2), ptr %this, align 8
  %d_data = getelementptr inbounds i8, ptr %this, i64 16
  store ptr %data, ptr %d_data, align 8
  br label %arrayctor.loop

arrayctor.loop:                                   ; preds = %arrayctor.loop, %entry
  %arrayctor.cur.idx = phi i64 [ 24, %entry ], [ %arrayctor.cur.add, %arrayctor.loop ]
  %arrayctor.cur.ptr = getelementptr inbounds i8, ptr %this, i64 %arrayctor.cur.idx
  %0 = getelementptr inbounds i8, ptr %arrayctor.cur.ptr, i64 8
  store i32 0, ptr %0, align 8
  %_M_parent.i.i.i.i.i = getelementptr inbounds i8, ptr %arrayctor.cur.ptr, i64 16
  store ptr null, ptr %_M_parent.i.i.i.i.i, align 8
  %_M_left.i.i.i.i.i = getelementptr inbounds i8, ptr %arrayctor.cur.ptr, i64 24
  store ptr %0, ptr %_M_left.i.i.i.i.i, align 8
  %_M_right.i.i.i.i.i = getelementptr inbounds i8, ptr %arrayctor.cur.ptr, i64 32
  store ptr %0, ptr %_M_right.i.i.i.i.i, align 8
  %_M_node_count.i.i.i.i.i = getelementptr inbounds i8, ptr %arrayctor.cur.ptr, i64 40
  store i64 0, ptr %_M_node_count.i.i.i.i.i, align 8
  %arrayctor.cur.add = add nuw nsw i64 %arrayctor.cur.idx, 48
  %arrayctor.done = icmp eq i64 %arrayctor.cur.add, 216
  br i1 %arrayctor.done, label %arrayctor.cont, label %arrayctor.loop

arrayctor.cont:                                   ; preds = %arrayctor.loop
  ret void
}